target datalayout = "e-m:e-p270:32:32-p271:32:32-p272:64:64-i64:64-i128:128-f80:128-n8:16:32:64-S128"
target triple = "x86_64-pc-linux-gnu"

%struct._lv_event_t = type { ptr, ptr, i32, ptr, ptr, ptr, i8 }

; Function Attrs: nounwind uwtable
define ptr @lv_event_get_hit_test_info(ptr noundef %0) #0 {
  %2 = alloca ptr, align 8
  %3 = alloca ptr, align 8
  store ptr %0, ptr %3, align 8, !tbaa !3
  %4 = load ptr, ptr %3, align 8, !tbaa !3
  %5 = getelementptr inbounds nuw %struct._lv_event_t, ptr %4, i32 0, i32 2
  %6 = load i32, ptr %5, align 8, !tbaa !12
  %7 = icmp eq i32 %6, 22
  br i1 %7, label %8, label %11

8:                                                ; preds = %1
  %9 = load ptr, ptr %3, align 8, !tbaa !3
  %10 = call ptr @lv_event_get_param(ptr noundef %9)
  store ptr %10, ptr %2, align 8
  br label %14

11:                                               ; preds = %1
  br label %12

12:                                               ; preds = %11
  br label %13

13:                                               ; preds = %12
  store ptr null, ptr %2, align 8
  br label %14

14:                                               ; preds = %13, %8
  %15 = load ptr, ptr %2, align 8
  ret ptr %15
}